target datalayout = "e-m:e-p270:32:32-p271:32:32-p272:64:64-i64:64-i128:128-f80:128-n8:16:32:64-S128"
target triple = "x86_64-pc-linux-gnu"

%"class.Assimp::SMDImporter" = type <{ %"class.Assimp::BaseImporter", i32, [4 x i8], %"class.std::vector", ptr, ptr, i32, [4 x i8], %"class.std::vector.0", %"class.std::vector.5", %"class.std::vector.10", i32, [4 x i8], double, i8, [3 x i8], i32, i8, i8, [6 x i8] }>
%"class.Assimp::BaseImporter" = type { ptr, double, double, %"class.std::__cxx11::basic_string", %"class.std::__exception_ptr::exception_ptr", ptr }
%"class.std::__cxx11::basic_string" = type { %"struct.std::__cxx11::basic_string<char>::_Alloc_hider", i64, %union.anon }
%"struct.std::__cxx11::basic_string<char>::_Alloc_hider" = type { ptr }
%union.anon = type { i64, [8 x i8] }
%"class.std::__exception_ptr::exception_ptr" = type { ptr }
%"class.std::vector" = type { %"struct.std::_Vector_base" }
%"struct.std::_Vector_base" = type { %"struct.std::_Vector_base<char, std::allocator<char>>::_Vector_impl" }
%"struct.std::_Vector_base<char, std::allocator<char>>::_Vector_impl" = type { %"struct.std::_Vector_base<char, std::allocator<char>>::_Vector_impl_data" }
%"struct.std::_Vector_base<char, std::allocator<char>>::_Vector_impl_data" = type { ptr, ptr, ptr }
%"class.std::vector.0" = type { %"struct.std::_Vector_base.1" }
%"struct.std::_Vector_base.1" = type { %"struct.std::_Vector_base<std::__cxx11::basic_string<char>, std::allocator<std::__cxx11::basic_string<char>>>::_Vector_impl" }
%"struct.std::_Vector_base<std::__cxx11::basic_string<char>, std::allocator<std::__cxx11::basic_string<char>>>::_Vector_impl" = type { %"struct.std::_Vector_base<std::__cxx11::basic_string<char>, std::allocator<std::__cxx11::basic_string<char>>>::_Vector_impl_data" }
%"struct.std::_Vector_base<std::__cxx11::basic_string<char>, std::allocator<std::__cxx11::basic_string<char>>>::_Vector_impl_data" = type { ptr, ptr, ptr }
%"class.std::vector.5" = type { %"struct.std::_Vector_base.6" }
%"struct.std::_Vector_base.6" = type { %"struct.std::_Vector_base<Assimp::SMD::Face, std::allocator<Assimp::SMD::Face>>::_Vector_impl" }
%"struct.std::_Vector_base<Assimp::SMD::Face, std::allocator<Assimp::SMD::Face>>::_Vector_impl" = type { %"struct.std::_Vector_base<Assimp::SMD::Face, std::allocator<Assimp::SMD::Face>>::_Vector_impl_data" }
%"struct.std::_Vector_base<Assimp::SMD::Face, std::allocator<Assimp::SMD::Face>>::_Vector_impl_data" = type { ptr, ptr, ptr }
%"class.std::vector.10" = type { %"struct.std::_Vector_base.11" }
%"struct.std::_Vector_base.11" = type { %"struct.std::_Vector_base<Assimp::SMD::Bone, std::allocator<Assimp::SMD::Bone>>::_Vector_impl" }
%"struct.std::_Vector_base<Assimp::SMD::Bone, std::allocator<Assimp::SMD::Bone>>::_Vector_impl" = type { %"struct.std::_Vector_base<Assimp::SMD::Bone, std::allocator<Assimp::SMD::Bone>>::_Vector_impl_data" }
%"struct.std::_Vector_base<Assimp::SMD::Bone, std::allocator<Assimp::SMD::Bone>>::_Vector_impl_data" = type { ptr, ptr, ptr }

@.str.2 = private unnamed_addr constant [20 x i8] c"IMPORT_SMD_KEYFRAME\00", align 1
@.str.3 = private unnamed_addr constant [23 x i8] c"IMPORT_GLOBAL_KEYFRAME\00", align 1
@.str.4 = private unnamed_addr constant [31 x i8] c"IMPORT_SMD_LOAD_ANIMATION_LIST\00", align 1
@.str.5 = private unnamed_addr constant [26 x i8] c"IMPORT_NO_SKELETON_MESHES\00", align 1

; Function Attrs: mustprogress uwtable
define linkonce_odr noundef zeroext i1 @_ZNK6Assimp8Importer15GetPropertyBoolEPKcb(ptr noundef nonnull align 8 dereferenceable(8) %0, ptr noundef %1, i1 noundef zeroext %2) #3 comdat align 2 {
  %4 = alloca ptr, align 8
  %5 = alloca ptr, align 8
  %6 = alloca i8, align 1
  store ptr %0, ptr %4, align 8
  store ptr %1, ptr %5, align 8
  %7 = zext i1 %2 to i8
  store i8 %7, ptr %6, align 1
  %8 = load ptr, ptr %4, align 8
  %9 = load ptr, ptr %5, align 8
  %10 = load i8, ptr %6, align 1, !range !3, !noundef !4
  %11 = trunc i8 %10 to i1
  %12 = zext i1 %11 to i32
  %13 = call noundef i32 @_ZNK6Assimp8Importer18GetPropertyIntegerEPKci(ptr noundef nonnull align 8 dereferenceable(8) %8, ptr noundef %9, i32 noundef %12)
  %14 = icmp ne i32 %13, 0
  ret i1 %14
}

; Function Attrs: mustprogress uwtable
define void @_ZN6Assimp11SMDImporter15SetupPropertiesEPKNS_8ImporterE(ptr noundef nonnull align 8 dereferenceable(226) %0, ptr noundef %1) unnamed_addr #3 align 2 {
  %3 = alloca ptr, align 8
  %4 = alloca ptr, align 8
  store ptr %0, ptr %3, align 8
  store ptr %1, ptr %4, align 8
  %5 = load ptr, ptr %3, align 8
  %6 = load ptr, ptr %4, align 8
  %7 = call noundef i32 @_ZNK6Assimp8Importer18GetPropertyIntegerEPKci(ptr noundef nonnull align 8 dereferenceable(8) %6, ptr noundef @.str.2, i32 noundef -1)
  %8 = getelementptr inbounds nuw %"class.Assimp::SMDImporter", ptr %5, i32 0, i32 1
  store i32 %7, ptr %8, align 8
  %9 = getelementptr inbounds nuw %"class.Assimp::SMDImporter", ptr %5, i32 0, i32 1
  %10 = load i32, ptr %9, align 8
  %11 = icmp eq i32 -1, %10
  br i1 %11, label %12, label %16

12:                                               ; preds = %2
  %13 = load ptr, ptr %4, align 8
  %14 = call noundef i32 @_ZNK6Assimp8Importer18GetPropertyIntegerEPKci(ptr noundef nonnull align 8 dereferenceable(8) %13, ptr noundef @.str.3, i32 noundef 0)
  %15 = getelementptr inbounds nuw %"class.Assimp::SMDImporter", ptr %5, i32 0, i32 1
  store i32 %14, ptr %15, align 8
  br label %16

16:                                               ; preds = %12, %2
  %17 = load ptr, ptr %4, align 8
  %18 = call noundef zeroext i1 @_ZNK6Assimp8Importer15GetPropertyBoolEPKcb(ptr noundef nonnull align 8 dereferenceable(8) %17, ptr noundef @.str.4, i1 noundef zeroext true)
  %19 = getelementptr inbounds nuw %"class.Assimp::SMDImporter", ptr %5, i32 0, i32 17
  %20 = zext i1 %18 to i8
  store i8 %20, ptr %19, align 8
  %21 = load ptr, ptr %4, align 8
  %22 = call noundef zeroext i1 @_ZNK6Assimp8Importer15GetPropertyBoolEPKcb(ptr noundef nonnull align 8 dereferenceable(8) %21, ptr noundef @.str.5, i1 noundef zeroext false)
  %23 = getelementptr inbounds nuw %"class.Assimp::SMDImporter", ptr %5, i32 0, i32 18
  %24 = zext i1 %22 to i8
  store i8 %24, ptr %23, align 1
  ret void
}