; Function Attrs: mustprogress uwtable
define void @_ZN6Assimp11SMDImporter15SetupPropertiesEPKNS_8ImporterE(ptr noundef nonnull writeonly align 8 captures(none) dereferenceable(226) initializes((72, 76), (224, 226)) %0, ptr noundef nonnull %1) unnamed_addr #3 align 2 {
  %3 = tail call noundef i32 @_ZNK6Assimp8Importer18GetPropertyIntegerEPKci(ptr noundef nonnull align 8 dereferenceable(8) %1, ptr noundef nonnull @.str.2, i32 noundef -1)
  %4 = getelementptr inbounds nuw i8, ptr %0, i64 72
  store i32 %3, ptr %4, align 8
  %5 = icmp eq i32 %3, -1
  br i1 %5, label %6, label %8

6:                                                ; preds = %2
  %7 = tail call noundef i32 @_ZNK6Assimp8Importer18GetPropertyIntegerEPKci(ptr noundef nonnull align 8 dereferenceable(8) %1, ptr noundef nonnull @.str.3, i32 noundef 0)
  store i32 %7, ptr %4, align 8
  br label %8

8:                                                ; preds = %6, %2
  %9 = tail call noundef i32 @_ZNK6Assimp8Importer18GetPropertyIntegerEPKci(ptr noundef nonnull align 8 dereferenceable(8) %1, ptr noundef nonnull @.str.4, i32 noundef 1)
  %10 = icmp ne i32 %9, 0
  %11 = getelementptr inbounds nuw i8, ptr %0, i64 224
  %12 = zext i1 %10 to i8
  store i8 %12, ptr %11, align 8
  %13 = tail call noundef i32 @_ZNK6Assimp8Importer18GetPropertyIntegerEPKci(ptr noundef nonnull align 8 dereferenceable(8) %1, ptr noundef nonnull @.str.5, i32 noundef 0)
  %14 = icmp ne i32 %13, 0
  %15 = getelementptr inbounds nuw i8, ptr %0, i64 225
  %16 = zext i1 %14 to i8
  store i8 %16, ptr %15, align 1
  ret void
}